
shells:     file format elf32-i386


Disassembly of section .init:

08048378 <_init>:
 8048378:	53                   	push   ebx
 8048379:	83 ec 08             	sub    esp,0x8
 804837c:	e8 ef 00 00 00       	call   8048470 <__x86.get_pc_thunk.bx>
 8048381:	81 c3 8b 16 00 00    	add    ebx,0x168b
 8048387:	8b 83 fc ff ff ff    	mov    eax,DWORD PTR [ebx-0x4]
 804838d:	85 c0                	test   eax,eax
 804838f:	74 05                	je     8048396 <_init+0x1e>
 8048391:	e8 6a 00 00 00       	call   8048400 <__gmon_start__@plt>
 8048396:	83 c4 08             	add    esp,0x8
 8048399:	5b                   	pop    ebx
 804839a:	c3                   	ret    

Disassembly of section .plt:

080483a0 <read@plt-0x10>:
 80483a0:	ff 35 10 9a 04 08    	push   DWORD PTR ds:0x8049a10
 80483a6:	ff 25 14 9a 04 08    	jmp    DWORD PTR ds:0x8049a14
 80483ac:	00 00                	add    BYTE PTR [eax],al
	...

080483b0 <read@plt>:
 80483b0:	ff 25 18 9a 04 08    	jmp    DWORD PTR ds:0x8049a18
 80483b6:	68 00 00 00 00       	push   0x0
 80483bb:	e9 e0 ff ff ff       	jmp    80483a0 <_init+0x28>

080483c0 <printf@plt>:
 80483c0:	ff 25 1c 9a 04 08    	jmp    DWORD PTR ds:0x8049a1c
 80483c6:	68 08 00 00 00       	push   0x8
 80483cb:	e9 d0 ff ff ff       	jmp    80483a0 <_init+0x28>

080483d0 <fflush@plt>:
 80483d0:	ff 25 20 9a 04 08    	jmp    DWORD PTR ds:0x8049a20
 80483d6:	68 10 00 00 00       	push   0x10
 80483db:	e9 c0 ff ff ff       	jmp    80483a0 <_init+0x28>

080483e0 <puts@plt>:
 80483e0:	ff 25 24 9a 04 08    	jmp    DWORD PTR ds:0x8049a24
 80483e6:	68 18 00 00 00       	push   0x18
 80483eb:	e9 b0 ff ff ff       	jmp    80483a0 <_init+0x28>

080483f0 <system@plt>:
 80483f0:	ff 25 28 9a 04 08    	jmp    DWORD PTR ds:0x8049a28
 80483f6:	68 20 00 00 00       	push   0x20
 80483fb:	e9 a0 ff ff ff       	jmp    80483a0 <_init+0x28>

08048400 <__gmon_start__@plt>:
 8048400:	ff 25 2c 9a 04 08    	jmp    DWORD PTR ds:0x8049a2c
 8048406:	68 28 00 00 00       	push   0x28
 804840b:	e9 90 ff ff ff       	jmp    80483a0 <_init+0x28>

08048410 <exit@plt>:
 8048410:	ff 25 30 9a 04 08    	jmp    DWORD PTR ds:0x8049a30
 8048416:	68 30 00 00 00       	push   0x30
 804841b:	e9 80 ff ff ff       	jmp    80483a0 <_init+0x28>

08048420 <mmap@plt>:
 8048420:	ff 25 34 9a 04 08    	jmp    DWORD PTR ds:0x8049a34
 8048426:	68 38 00 00 00       	push   0x38
 804842b:	e9 70 ff ff ff       	jmp    80483a0 <_init+0x28>

08048430 <__libc_start_main@plt>:
 8048430:	ff 25 38 9a 04 08    	jmp    DWORD PTR ds:0x8049a38
 8048436:	68 40 00 00 00       	push   0x40
 804843b:	e9 60 ff ff ff       	jmp    80483a0 <_init+0x28>

Disassembly of section .text:

08048440 <_start>:
 8048440:	31 ed                	xor    ebp,ebp
 8048442:	5e                   	pop    esi
 8048443:	89 e1                	mov    ecx,esp
 8048445:	83 e4 f0             	and    esp,0xfffffff0
 8048448:	50                   	push   eax
 8048449:	54                   	push   esp
 804844a:	52                   	push   edx
 804844b:	68 e0 86 04 08       	push   0x80486e0
 8048450:	68 70 86 04 08       	push   0x8048670
 8048455:	51                   	push   ecx
 8048456:	56                   	push   esi
 8048457:	68 10 86 04 08       	push   0x8048610
 804845c:	e8 cf ff ff ff       	call   8048430 <__libc_start_main@plt>
 8048461:	f4                   	hlt    
 8048462:	66 90                	xchg   ax,ax
 8048464:	66 90                	xchg   ax,ax
 8048466:	66 90                	xchg   ax,ax
 8048468:	66 90                	xchg   ax,ax
 804846a:	66 90                	xchg   ax,ax
 804846c:	66 90                	xchg   ax,ax
 804846e:	66 90                	xchg   ax,ax

08048470 <__x86.get_pc_thunk.bx>:
 8048470:	8b 1c 24             	mov    ebx,DWORD PTR [esp]
 8048473:	c3                   	ret    
 8048474:	66 90                	xchg   ax,ax
 8048476:	66 90                	xchg   ax,ax
 8048478:	66 90                	xchg   ax,ax
 804847a:	66 90                	xchg   ax,ax
 804847c:	66 90                	xchg   ax,ax
 804847e:	66 90                	xchg   ax,ax

08048480 <deregister_tm_clones>:
 8048480:	b8 47 9a 04 08       	mov    eax,0x8049a47
 8048485:	2d 44 9a 04 08       	sub    eax,0x8049a44
 804848a:	83 f8 06             	cmp    eax,0x6
 804848d:	76 1a                	jbe    80484a9 <deregister_tm_clones+0x29>
 804848f:	b8 00 00 00 00       	mov    eax,0x0
 8048494:	85 c0                	test   eax,eax
 8048496:	74 11                	je     80484a9 <deregister_tm_clones+0x29>
 8048498:	55                   	push   ebp
 8048499:	89 e5                	mov    ebp,esp
 804849b:	83 ec 14             	sub    esp,0x14
 804849e:	68 44 9a 04 08       	push   0x8049a44
 80484a3:	ff d0                	call   eax
 80484a5:	83 c4 10             	add    esp,0x10
 80484a8:	c9                   	leave  
 80484a9:	f3 c3                	repz ret 
 80484ab:	90                   	nop
 80484ac:	8d 74 26 00          	lea    esi,[esi+eiz*1+0x0]

080484b0 <register_tm_clones>:
 80484b0:	b8 44 9a 04 08       	mov    eax,0x8049a44
 80484b5:	2d 44 9a 04 08       	sub    eax,0x8049a44
 80484ba:	c1 f8 02             	sar    eax,0x2
 80484bd:	89 c2                	mov    edx,eax
 80484bf:	c1 ea 1f             	shr    edx,0x1f
 80484c2:	01 d0                	add    eax,edx
 80484c4:	d1 f8                	sar    eax,1
 80484c6:	74 1b                	je     80484e3 <register_tm_clones+0x33>
 80484c8:	ba 00 00 00 00       	mov    edx,0x0
 80484cd:	85 d2                	test   edx,edx
 80484cf:	74 12                	je     80484e3 <register_tm_clones+0x33>
 80484d1:	55                   	push   ebp
 80484d2:	89 e5                	mov    ebp,esp
 80484d4:	83 ec 10             	sub    esp,0x10
 80484d7:	50                   	push   eax
 80484d8:	68 44 9a 04 08       	push   0x8049a44
 80484dd:	ff d2                	call   edx
 80484df:	83 c4 10             	add    esp,0x10
 80484e2:	c9                   	leave  
 80484e3:	f3 c3                	repz ret 
 80484e5:	8d 74 26 00          	lea    esi,[esi+eiz*1+0x0]
 80484e9:	8d bc 27 00 00 00 00 	lea    edi,[edi+eiz*1+0x0]

080484f0 <__do_global_dtors_aux>:
 80484f0:	80 3d 64 9a 04 08 00 	cmp    BYTE PTR ds:0x8049a64,0x0
 80484f7:	75 13                	jne    804850c <__do_global_dtors_aux+0x1c>
 80484f9:	55                   	push   ebp
 80484fa:	89 e5                	mov    ebp,esp
 80484fc:	83 ec 08             	sub    esp,0x8
 80484ff:	e8 7c ff ff ff       	call   8048480 <deregister_tm_clones>
 8048504:	c6 05 64 9a 04 08 01 	mov    BYTE PTR ds:0x8049a64,0x1
 804850b:	c9                   	leave  
 804850c:	f3 c3                	repz ret 
 804850e:	66 90                	xchg   ax,ax

08048510 <frame_dummy>:
 8048510:	b8 1c 99 04 08       	mov    eax,0x804991c
 8048515:	8b 10                	mov    edx,DWORD PTR [eax]
 8048517:	85 d2                	test   edx,edx
 8048519:	75 05                	jne    8048520 <frame_dummy+0x10>
 804851b:	eb 93                	jmp    80484b0 <register_tm_clones>
 804851d:	8d 76 00             	lea    esi,[esi+0x0]
 8048520:	ba 00 00 00 00       	mov    edx,0x0
 8048525:	85 d2                	test   edx,edx
 8048527:	74 f2                	je     804851b <frame_dummy+0xb>
 8048529:	55                   	push   ebp
 804852a:	89 e5                	mov    ebp,esp
 804852c:	83 ec 14             	sub    esp,0x14
 804852f:	50                   	push   eax
 8048530:	ff d2                	call   edx
 8048532:	83 c4 10             	add    esp,0x10
 8048535:	c9                   	leave  
 8048536:	e9 75 ff ff ff       	jmp    80484b0 <register_tm_clones>
 804853b:	66 90                	xchg   ax,ax
 804853d:	66 90                	xchg   ax,ax
 804853f:	90                   	nop

08048540 <win>:
 8048540:	55                   	push   ebp
 8048541:	89 e5                	mov    ebp,esp
 8048543:	83 ec 08             	sub    esp,0x8
 8048546:	83 ec 0c             	sub    esp,0xc
 8048549:	68 00 87 04 08       	push   0x8048700
 804854e:	e8 9d fe ff ff       	call   80483f0 <system@plt>
 8048553:	83 c4 10             	add    esp,0x10
 8048556:	c9                   	leave  
 8048557:	c3                   	ret    
 8048558:	90                   	nop
 8048559:	8d b4 26 00 00 00 00 	lea    esi,[esi+eiz*1+0x0]

08048560 <vuln>:
 8048560:	55                   	push   ebp
 8048561:	89 e5                	mov    ebp,esp
 8048563:	83 ec 18             	sub    esp,0x18
 8048566:	83 ec 08             	sub    esp,0x8
 8048569:	6a 00                	push   0x0
 804856b:	6a 00                	push   0x0
 804856d:	6a 22                	push   0x22
 804856f:	6a 07                	push   0x7
 8048571:	6a 0a                	push   0xa
 8048573:	6a 00                	push   0x0
 8048575:	e8 a6 fe ff ff       	call   8048420 <mmap@plt>
 804857a:	83 c4 20             	add    esp,0x20
 804857d:	89 45 f4             	mov    DWORD PTR [ebp-0xc],eax
 8048580:	83 7d f4 ff          	cmp    DWORD PTR [ebp-0xc],0xffffffff
 8048584:	75 1a                	jne    80485a0 <vuln+0x40>
 8048586:	83 ec 0c             	sub    esp,0xc
 8048589:	68 14 87 04 08       	push   0x8048714
 804858e:	e8 4d fe ff ff       	call   80483e0 <puts@plt>
 8048593:	83 c4 10             	add    esp,0x10
 8048596:	83 ec 0c             	sub    esp,0xc
 8048599:	6a 00                	push   0x0
 804859b:	e8 70 fe ff ff       	call   8048410 <exit@plt>
 80485a0:	83 ec 08             	sub    esp,0x8
 80485a3:	6a 0a                	push   0xa
 80485a5:	68 3e 87 04 08       	push   0x804873e
 80485aa:	e8 11 fe ff ff       	call   80483c0 <printf@plt>
 80485af:	83 c4 10             	add    esp,0x10
 80485b2:	a1 60 9a 04 08       	mov    eax,ds:0x8049a60
 80485b7:	83 ec 0c             	sub    esp,0xc
 80485ba:	50                   	push   eax
 80485bb:	e8 10 fe ff ff       	call   80483d0 <fflush@plt>
 80485c0:	83 c4 10             	add    esp,0x10
 80485c3:	83 ec 04             	sub    esp,0x4
 80485c6:	6a 0a                	push   0xa
 80485c8:	ff 75 f4             	push   DWORD PTR [ebp-0xc]
 80485cb:	6a 00                	push   0x0
 80485cd:	e8 de fd ff ff       	call   80483b0 <read@plt>
 80485d2:	83 c4 10             	add    esp,0x10
 80485d5:	89 45 f0             	mov    DWORD PTR [ebp-0x10],eax
 80485d8:	83 7d f0 00          	cmp    DWORD PTR [ebp-0x10],0x0
 80485dc:	75 1a                	jne    80485f8 <vuln+0x98>
 80485de:	83 ec 0c             	sub    esp,0xc
 80485e1:	68 54 87 04 08       	push   0x8048754
 80485e6:	e8 d5 fd ff ff       	call   80483c0 <printf@plt>
 80485eb:	83 c4 10             	add    esp,0x10
 80485ee:	83 ec 0c             	sub    esp,0xc
 80485f1:	6a 00                	push   0x0
 80485f3:	e8 18 fe ff ff       	call   8048410 <exit@plt>
 80485f8:	8b 45 f4             	mov    eax,DWORD PTR [ebp-0xc]
 80485fb:	89 45 ec             	mov    DWORD PTR [ebp-0x14],eax
 80485fe:	8b 45 ec             	mov    eax,DWORD PTR [ebp-0x14]
 8048601:	ff d0                	call   eax
 8048603:	c9                   	leave  
 8048604:	c3                   	ret    
 8048605:	8d 74 26 00          	lea    esi,[esi+eiz*1+0x0]
 8048609:	8d bc 27 00 00 00 00 	lea    edi,[edi+eiz*1+0x0]

08048610 <main>:
 8048610:	8d 4c 24 04          	lea    ecx,[esp+0x4]
 8048614:	83 e4 f0             	and    esp,0xfffffff0
 8048617:	ff 71 fc             	push   DWORD PTR [ecx-0x4]
 804861a:	55                   	push   ebp
 804861b:	89 e5                	mov    ebp,esp
 804861d:	51                   	push   ecx
 804861e:	83 ec 04             	sub    esp,0x4
 8048621:	83 ec 0c             	sub    esp,0xc
 8048624:	68 74 87 04 08       	push   0x8048774
 8048629:	e8 b2 fd ff ff       	call   80483e0 <puts@plt>
 804862e:	83 c4 10             	add    esp,0x10
 8048631:	83 ec 0c             	sub    esp,0xc
 8048634:	68 ac 87 04 08       	push   0x80487ac
 8048639:	e8 a2 fd ff ff       	call   80483e0 <puts@plt>
 804863e:	83 c4 10             	add    esp,0x10
 8048641:	a1 60 9a 04 08       	mov    eax,ds:0x8049a60
 8048646:	83 ec 0c             	sub    esp,0xc
 8048649:	50                   	push   eax
 804864a:	e8 81 fd ff ff       	call   80483d0 <fflush@plt>
 804864f:	83 c4 10             	add    esp,0x10
 8048652:	e8 09 ff ff ff       	call   8048560 <vuln>
 8048657:	b8 00 00 00 00       	mov    eax,0x0
 804865c:	8b 4d fc             	mov    ecx,DWORD PTR [ebp-0x4]
 804865f:	c9                   	leave  
 8048660:	8d 61 fc             	lea    esp,[ecx-0x4]
 8048663:	c3                   	ret    
 8048664:	66 90                	xchg   ax,ax
 8048666:	66 90                	xchg   ax,ax
 8048668:	66 90                	xchg   ax,ax
 804866a:	66 90                	xchg   ax,ax
 804866c:	66 90                	xchg   ax,ax
 804866e:	66 90                	xchg   ax,ax

08048670 <__libc_csu_init>:
 8048670:	55                   	push   ebp
 8048671:	57                   	push   edi
 8048672:	31 ff                	xor    edi,edi
 8048674:	56                   	push   esi
 8048675:	53                   	push   ebx
 8048676:	e8 f5 fd ff ff       	call   8048470 <__x86.get_pc_thunk.bx>
 804867b:	81 c3 91 13 00 00    	add    ebx,0x1391
 8048681:	83 ec 1c             	sub    esp,0x1c
 8048684:	8b 6c 24 30          	mov    ebp,DWORD PTR [esp+0x30]
 8048688:	8d b3 0c ff ff ff    	lea    esi,[ebx-0xf4]
 804868e:	e8 e5 fc ff ff       	call   8048378 <_init>
 8048693:	8d 83 08 ff ff ff    	lea    eax,[ebx-0xf8]
 8048699:	29 c6                	sub    esi,eax
 804869b:	c1 fe 02             	sar    esi,0x2
 804869e:	85 f6                	test   esi,esi
 80486a0:	74 27                	je     80486c9 <__libc_csu_init+0x59>
 80486a2:	8d b6 00 00 00 00    	lea    esi,[esi+0x0]
 80486a8:	8b 44 24 38          	mov    eax,DWORD PTR [esp+0x38]
 80486ac:	89 2c 24             	mov    DWORD PTR [esp],ebp
 80486af:	89 44 24 08          	mov    DWORD PTR [esp+0x8],eax
 80486b3:	8b 44 24 34          	mov    eax,DWORD PTR [esp+0x34]
 80486b7:	89 44 24 04          	mov    DWORD PTR [esp+0x4],eax
 80486bb:	ff 94 bb 08 ff ff ff 	call   DWORD PTR [ebx+edi*4-0xf8]
 80486c2:	83 c7 01             	add    edi,0x1
 80486c5:	39 f7                	cmp    edi,esi
 80486c7:	75 df                	jne    80486a8 <__libc_csu_init+0x38>
 80486c9:	83 c4 1c             	add    esp,0x1c
 80486cc:	5b                   	pop    ebx
 80486cd:	5e                   	pop    esi
 80486ce:	5f                   	pop    edi
 80486cf:	5d                   	pop    ebp
 80486d0:	c3                   	ret    
 80486d1:	eb 0d                	jmp    80486e0 <__libc_csu_fini>
 80486d3:	90                   	nop
 80486d4:	90                   	nop
 80486d5:	90                   	nop
 80486d6:	90                   	nop
 80486d7:	90                   	nop
 80486d8:	90                   	nop
 80486d9:	90                   	nop
 80486da:	90                   	nop
 80486db:	90                   	nop
 80486dc:	90                   	nop
 80486dd:	90                   	nop
 80486de:	90                   	nop
 80486df:	90                   	nop

080486e0 <__libc_csu_fini>:
 80486e0:	f3 c3                	repz ret 

Disassembly of section .fini:

080486e4 <_fini>:
 80486e4:	53                   	push   ebx
 80486e5:	83 ec 08             	sub    esp,0x8
 80486e8:	e8 83 fd ff ff       	call   8048470 <__x86.get_pc_thunk.bx>
 80486ed:	81 c3 1f 13 00 00    	add    ebx,0x131f
 80486f3:	83 c4 08             	add    esp,0x8
 80486f6:	5b                   	pop    ebx
 80486f7:	c3                   	ret    
